target datalayout = "e-m:e-p270:32:32-p271:32:32-p272:64:64-i64:64-i128:128-f80:128-n8:16:32:64-S128"
target triple = "x86_64-unknown-linux-gnu"

%class.btTranslationalLimitMotor2 = type { %class.btVector3, %class.btVector3, %class.btVector3, %class.btVector3, %class.btVector3, %class.btVector3, %class.btVector3, [3 x i8], [3 x i8], [3 x i8], %class.btVector3, %class.btVector3, [3 x i8], %class.btVector3, [3 x i8], %class.btVector3, %class.btVector3, %class.btVector3, %class.btVector3, %class.btVector3, %class.btVector3, [3 x i32] }
%class.btVector3 = type { [4 x float] }

; Function Attrs: mustprogress nounwind uwtable
define linkonce_odr dso_local noundef ptr @_ZN9btVector3cvPfEv(ptr noundef nonnull align 4 dereferenceable(16) %this) #1 comdat align 2 {
entry:
  %this.addr = alloca ptr, align 8
  store ptr %this, ptr %this.addr, align 8
  %this1 = load ptr, ptr %this.addr, align 8
  %m_floats = getelementptr inbounds %class.btVector3, ptr %this1, i32 0, i32 0
  %arrayidx = getelementptr inbounds [4 x float], ptr %m_floats, i64 0, i64 0
  ret ptr %arrayidx
}

; Function Attrs: mustprogress uwtable
define dso_local void @_ZN26btTranslationalLimitMotor214testLimitValueEif(ptr noundef nonnull align 4 dereferenceable(288) %this, i32 noundef %limitIndex, float noundef %test_value) #2 align 2 {
entry:
  %this.addr = alloca ptr, align 8
  %limitIndex.addr = alloca i32, align 4
  %test_value.addr = alloca float, align 4
  %loLimit = alloca float, align 4
  %hiLimit = alloca float, align 4
  store ptr %this, ptr %this.addr, align 8
  store i32 %limitIndex, ptr %limitIndex.addr, align 4
  store float %test_value, ptr %test_value.addr, align 4
  %this1 = load ptr, ptr %this.addr, align 8
  %m_lowerLimit = getelementptr inbounds %class.btTranslationalLimitMotor2, ptr %this1, i32 0, i32 0
  %call = call noundef ptr @_ZN9btVector3cvPfEv(ptr noundef nonnull align 4 dereferenceable(16) %m_lowerLimit)
  %0 = load i32, ptr %limitIndex.addr, align 4
  %idxprom = sext i32 %0 to i64
  %arrayidx = getelementptr inbounds float, ptr %call, i64 %idxprom
  %1 = load float, ptr %arrayidx, align 4
  store float %1, ptr %loLimit, align 4
  %m_upperLimit = getelementptr inbounds %class.btTranslationalLimitMotor2, ptr %this1, i32 0, i32 1
  %call2 = call noundef ptr @_ZN9btVector3cvPfEv(ptr noundef nonnull align 4 dereferenceable(16) %m_upperLimit)
  %2 = load i32, ptr %limitIndex.addr, align 4
  %idxprom3 = sext i32 %2 to i64
  %arrayidx4 = getelementptr inbounds float, ptr %call2, i64 %idxprom3
  %3 = load float, ptr %arrayidx4, align 4
  store float %3, ptr %hiLimit, align 4
  %4 = load float, ptr %loLimit, align 4
  %5 = load float, ptr %hiLimit, align 4
  %cmp = fcmp ogt float %4, %5
  br i1 %cmp, label %if.then, label %if.else

if.then:                                          ; preds = %entry
  %m_currentLimitError = getelementptr inbounds %class.btTranslationalLimitMotor2, ptr %this1, i32 0, i32 18
  %call5 = call noundef ptr @_ZN9btVector3cvPfEv(ptr noundef nonnull align 4 dereferenceable(16) %m_currentLimitError)
  %6 = load i32, ptr %limitIndex.addr, align 4
  %idxprom6 = sext i32 %6 to i64
  %arrayidx7 = getelementptr inbounds float, ptr %call5, i64 %idxprom6
  store float 0.000000e+00, ptr %arrayidx7, align 4
  %m_currentLimit = getelementptr inbounds %class.btTranslationalLimitMotor2, ptr %this1, i32 0, i32 21
  %7 = load i32, ptr %limitIndex.addr, align 4
  %idxprom8 = sext i32 %7 to i64
  %arrayidx9 = getelementptr inbounds [3 x i32], ptr %m_currentLimit, i64 0, i64 %idxprom8
  store i32 0, ptr %arrayidx9, align 4
  br label %if.end32

if.else:                                          ; preds = %entry
  %8 = load float, ptr %loLimit, align 4
  %9 = load float, ptr %hiLimit, align 4
  %cmp10 = fcmp oeq float %8, %9
  br i1 %cmp10, label %if.then11, label %if.else19

if.then11:                                        ; preds = %if.else
  %10 = load float, ptr %test_value.addr, align 4
  %11 = load float, ptr %loLimit, align 4
  %sub = fsub float %10, %11
  %m_currentLimitError12 = getelementptr inbounds %class.btTranslationalLimitMotor2, ptr %this1, i32 0, i32 18
  %call13 = call noundef ptr @_ZN9btVector3cvPfEv(ptr noundef nonnull align 4 dereferenceable(16) %m_currentLimitError12)
  %12 = load i32, ptr %limitIndex.addr, align 4
  %idxprom14 = sext i32 %12 to i64
  %arrayidx15 = getelementptr inbounds float, ptr %call13, i64 %idxprom14
  store float %sub, ptr %arrayidx15, align 4
  %m_currentLimit16 = getelementptr inbounds %class.btTranslationalLimitMotor2, ptr %this1, i32 0, i32 21
  %13 = load i32, ptr %limitIndex.addr, align 4
  %idxprom17 = sext i32 %13 to i64
  %arrayidx18 = getelementptr inbounds [3 x i32], ptr %m_currentLimit16, i64 0, i64 %idxprom17
  store i32 3, ptr %arrayidx18, align 4
  br label %if.end

if.else19:                                        ; preds = %if.else
  %14 = load float, ptr %test_value.addr, align 4
  %15 = load float, ptr %loLimit, align 4
  %sub20 = fsub float %14, %15
  %m_currentLimitError21 = getelementptr inbounds %class.btTranslationalLimitMotor2, ptr %this1, i32 0, i32 18
  %call22 = call noundef ptr @_ZN9btVector3cvPfEv(ptr noundef nonnull align 4 dereferenceable(16) %m_currentLimitError21)
  %16 = load i32, ptr %limitIndex.addr, align 4
  %idxprom23 = sext i32 %16 to i64
  %arrayidx24 = getelementptr inbounds float, ptr %call22, i64 %idxprom23
  store float %sub20, ptr %arrayidx24, align 4
  %17 = load float, ptr %test_value.addr, align 4
  %18 = load float, ptr %hiLimit, align 4
  %sub25 = fsub float %17, %18
  %m_currentLimitErrorHi = getelementptr inbounds %class.btTranslationalLimitMotor2, ptr %this1, i32 0, i32 19
  %call26 = call noundef ptr @_ZN9btVector3cvPfEv(ptr noundef nonnull align 4 dereferenceable(16) %m_currentLimitErrorHi)
  %19 = load i32, ptr %limitIndex.addr, align 4
  %idxprom27 = sext i32 %19 to i64
  %arrayidx28 = getelementptr inbounds float, ptr %call26, i64 %idxprom27
  store float %sub25, ptr %arrayidx28, align 4
  %m_currentLimit29 = getelementptr inbounds %class.btTranslationalLimitMotor2, ptr %this1, i32 0, i32 21
  %20 = load i32, ptr %limitIndex.addr, align 4
  %idxprom30 = sext i32 %20 to i64
  %arrayidx31 = getelementptr inbounds [3 x i32], ptr %m_currentLimit29, i64 0, i64 %idxprom30
  store i32 4, ptr %arrayidx31, align 4
  br label %if.end

if.end:                                           ; preds = %if.else19, %if.then11
  br label %if.end32

if.end32:                                         ; preds = %if.end, %if.then
  ret void
}