; Function Attrs: mustprogress nofree norecurse nosync nounwind willreturn memory(argmem: readwrite) uwtable
define dso_local void @_ZN26btTranslationalLimitMotor214testLimitValueEif(ptr nocapture noundef nonnull align 4 dereferenceable(288) %this, i32 noundef %limitIndex, float noundef %test_value) local_unnamed_addr #11 align 2 {
entry:
  %idxprom = sext i32 %limitIndex to i64
  %arrayidx = getelementptr inbounds float, ptr %this, i64 %idxprom
  %0 = load float, ptr %arrayidx, align 4
  %m_upperLimit = getelementptr inbounds i8, ptr %this, i64 16
  %arrayidx4 = getelementptr inbounds float, ptr %m_upperLimit, i64 %idxprom
  %1 = load float, ptr %arrayidx4, align 4
  %cmp = fcmp ogt float %0, %1
  br i1 %cmp, label %if.end32.sink.split, label %if.else

if.else:                                          ; preds = %entry
  %cmp10 = fcmp oeq float %0, %1
  %sub = fsub float %test_value, %0
  %m_currentLimitError12 = getelementptr inbounds i8, ptr %this, i64 228
  %arrayidx15 = getelementptr inbounds float, ptr %m_currentLimitError12, i64 %idxprom
  store float %sub, ptr %arrayidx15, align 4
  br i1 %cmp10, label %if.end32, label %if.else19

if.else19:                                        ; preds = %if.else
  %sub25 = fsub float %test_value, %1
  br label %if.end32.sink.split

if.end32.sink.split:                              ; preds = %entry, %if.else19
  %.sink17 = phi i64 [ 244, %if.else19 ], [ 228, %entry ]
  %sub25.sink = phi float [ %sub25, %if.else19 ], [ 0.000000e+00, %entry ]
  %.sink.ph = phi i32 [ 4, %if.else19 ], [ 0, %entry ]
  %m_currentLimitErrorHi = getelementptr inbounds i8, ptr %this, i64 %.sink17
  %arrayidx28 = getelementptr inbounds float, ptr %m_currentLimitErrorHi, i64 %idxprom
  store float %sub25.sink, ptr %arrayidx28, align 4
  br label %if.end32

if.end32:                                         ; preds = %if.end32.sink.split, %if.else
  %.sink = phi i32 [ 3, %if.else ], [ %.sink.ph, %if.end32.sink.split ]
  %m_currentLimit16 = getelementptr inbounds i8, ptr %this, i64 276
  %arrayidx18 = getelementptr inbounds [3 x i32], ptr %m_currentLimit16, i64 0, i64 %idxprom
  store i32 %.sink, ptr %arrayidx18, align 4
  ret void
}